; Function Attrs: nounwind uwtable
define dso_local ptr @range_intersect_internal(ptr noundef %0, ptr noundef %1, ptr noundef %2) local_unnamed_addr #0 {
  %4 = alloca %struct.RangeBound, align 8
  %5 = alloca %struct.RangeBound, align 8
  %6 = alloca %struct.RangeBound, align 8
  %7 = alloca %struct.RangeBound, align 8
  %8 = alloca %struct.RangeBound, align 8
  %9 = alloca %struct.RangeBound, align 8
  %10 = alloca i8, align 1
  %11 = alloca i8, align 1
  call void @llvm.lifetime.start.p0(i64 16, ptr nonnull %6) #14
  call void @llvm.lifetime.start.p0(i64 16, ptr nonnull %7) #14
  call void @llvm.lifetime.start.p0(i64 16, ptr nonnull %8) #14
  call void @llvm.lifetime.start.p0(i64 16, ptr nonnull %9) #14
  call void @llvm.lifetime.start.p0(i64 1, ptr nonnull %10) #14
  call void @llvm.lifetime.start.p0(i64 1, ptr nonnull %11) #14
  call void @range_deserialize(ptr noundef %0, ptr noundef %1, ptr noundef nonnull %6, ptr noundef nonnull %8, ptr noundef nonnull %10)
  call void @range_deserialize(ptr noundef %0, ptr noundef %2, ptr noundef nonnull %7, ptr noundef nonnull %9, ptr noundef nonnull %11)
  %12 = load i8, ptr %10, align 1, !range !7, !noundef !8
  %13 = trunc nuw i8 %12 to i1
  br i1 %13, label %19, label %14

14:                                               ; preds = %3
  %15 = load i8, ptr %11, align 1, !range !7, !noundef !8
  %16 = trunc nuw i8 %15 to i1
  br i1 %16, label %19, label %17

17:                                               ; preds = %14
  %18 = tail call zeroext i1 @range_overlaps_internal(ptr noundef %0, ptr noundef %1, ptr noundef %2)
  br i1 %18, label %24, label %19

19:                                               ; preds = %17, %14, %3
  call void @llvm.lifetime.start.p0(i64 16, ptr nonnull %4) #14
  call void @llvm.lifetime.start.p0(i64 16, ptr nonnull %5) #14
  store i64 0, ptr %4, align 8
  %20 = getelementptr inbounds nuw i8, ptr %4, i64 8
  store i8 0, ptr %20, align 8
  %21 = getelementptr inbounds nuw i8, ptr %4, i64 9
  store i8 0, ptr %21, align 1
  %22 = getelementptr inbounds nuw i8, ptr %4, i64 10
  store i8 1, ptr %22, align 2
  call void @llvm.memset.p0.i64(ptr noundef nonnull align 8 dereferenceable(11) %5, i8 0, i64 11, i1 false)
  %23 = call ptr @make_range(ptr noundef %0, ptr noundef nonnull %4, ptr noundef nonnull %5, i1 noundef zeroext true, ptr noundef null)
  call void @llvm.lifetime.end.p0(i64 16, ptr nonnull %5) #14
  call void @llvm.lifetime.end.p0(i64 16, ptr nonnull %4) #14
  br label %138

24:                                               ; preds = %17
  %25 = getelementptr inbounds nuw i8, ptr %6, i64 8
  %26 = load i8, ptr %25, align 8, !range !7, !noundef !8
  %27 = trunc nuw i8 %26 to i1
  %28 = getelementptr inbounds nuw i8, ptr %7, i64 8
  %29 = load i8, ptr %28, align 8, !range !7, !noundef !8
  %30 = trunc nuw i8 %29 to i1
  br i1 %27, label %31, label %42

31:                                               ; preds = %24
  %32 = getelementptr inbounds nuw i8, ptr %6, i64 10
  %33 = load i8, ptr %32, align 2, !range !7, !noundef !8
  br i1 %30, label %34, label %40

34:                                               ; preds = %31
  %35 = getelementptr inbounds nuw i8, ptr %7, i64 10
  %36 = load i8, ptr %35, align 2, !range !7, !noundef !8
  %37 = icmp eq i8 %33, %36
  br i1 %37, label %range_cmp_bounds.exit.thread, label %38

38:                                               ; preds = %34
  %39 = trunc nuw i8 %33 to i1
  br i1 %39, label %range_cmp_bounds.exit.thread26, label %range_cmp_bounds.exit.thread

40:                                               ; preds = %31
  %41 = trunc nuw i8 %33 to i1
  br i1 %41, label %range_cmp_bounds.exit.thread26, label %range_cmp_bounds.exit.thread

42:                                               ; preds = %24
  br i1 %30, label %43, label %47

43:                                               ; preds = %42
  %44 = getelementptr inbounds nuw i8, ptr %7, i64 10
  %45 = load i8, ptr %44, align 2, !range !7, !noundef !8
  %46 = trunc nuw i8 %45 to i1
  br i1 %46, label %range_cmp_bounds.exit.thread, label %range_cmp_bounds.exit.thread26

47:                                               ; preds = %42
  %48 = getelementptr inbounds nuw i8, ptr %0, i64 296
  %49 = getelementptr inbounds nuw i8, ptr %0, i64 292
  %50 = load i32, ptr %49, align 4
  %51 = load i64, ptr %6, align 8
  %52 = load i64, ptr %7, align 8
  %53 = tail call i64 @FunctionCall2Coll(ptr noundef nonnull %48, i32 noundef %50, i64 noundef %51, i64 noundef %52) #14
  %.fr42 = freeze i64 %53
  %54 = trunc i64 %.fr42 to i32
  %55 = icmp eq i32 %54, 0
  br i1 %55, label %56, label %range_cmp_bounds.exit

56:                                               ; preds = %47
  %57 = getelementptr inbounds nuw i8, ptr %6, i64 9
  %58 = load i8, ptr %57, align 1, !range !7, !noundef !8
  %59 = trunc nuw i8 %58 to i1
  %60 = getelementptr inbounds nuw i8, ptr %7, i64 9
  %61 = load i8, ptr %60, align 1, !range !7, !noundef !8
  %62 = trunc nuw i8 %61 to i1
  br i1 %59, label %74, label %63

63:                                               ; preds = %56
  %64 = getelementptr inbounds nuw i8, ptr %6, i64 10
  %65 = load i8, ptr %64, align 2, !range !7, !noundef !8
  br i1 %62, label %72, label %66

66:                                               ; preds = %63
  %67 = getelementptr inbounds nuw i8, ptr %7, i64 10
  %68 = load i8, ptr %67, align 2, !range !7, !noundef !8
  %69 = icmp eq i8 %65, %68
  br i1 %69, label %range_cmp_bounds.exit.thread, label %70

70:                                               ; preds = %66
  %71 = trunc nuw i8 %65 to i1
  br i1 %71, label %range_cmp_bounds.exit.thread, label %range_cmp_bounds.exit.thread26

72:                                               ; preds = %63
  %73 = trunc nuw i8 %65 to i1
  br i1 %73, label %range_cmp_bounds.exit.thread, label %range_cmp_bounds.exit.thread26

74:                                               ; preds = %56
  br i1 %62, label %range_cmp_bounds.exit.thread, label %75

75:                                               ; preds = %74
  %76 = getelementptr inbounds nuw i8, ptr %7, i64 10
  %77 = load i8, ptr %76, align 2, !range !7, !noundef !8
  %78 = trunc nuw i8 %77 to i1
  br i1 %78, label %range_cmp_bounds.exit.thread26, label %range_cmp_bounds.exit.thread

range_cmp_bounds.exit:                            ; preds = %47
  %79 = icmp sgt i32 %54, -1
  br i1 %79, label %range_cmp_bounds.exit.thread, label %range_cmp_bounds.exit.thread26

range_cmp_bounds.exit.thread:                     ; preds = %70, %72, %43, %74, %66, %34, %75, %40, %38, %range_cmp_bounds.exit
  br label %range_cmp_bounds.exit.thread26

range_cmp_bounds.exit.thread26:                   ; preds = %75, %40, %38, %70, %72, %43, %range_cmp_bounds.exit, %range_cmp_bounds.exit.thread
  %80 = phi ptr [ %6, %range_cmp_bounds.exit.thread ], [ %7, %range_cmp_bounds.exit ], [ %7, %43 ], [ %7, %72 ], [ %7, %70 ], [ %7, %38 ], [ %7, %40 ], [ %7, %75 ]
  %81 = getelementptr inbounds nuw i8, ptr %8, i64 8
  %82 = load i8, ptr %81, align 8, !range !7, !noundef !8
  %83 = trunc nuw i8 %82 to i1
  %84 = getelementptr inbounds nuw i8, ptr %9, i64 8
  %85 = load i8, ptr %84, align 8, !range !7, !noundef !8
  %86 = trunc nuw i8 %85 to i1
  br i1 %83, label %87, label %98

87:                                               ; preds = %range_cmp_bounds.exit.thread26
  %88 = getelementptr inbounds nuw i8, ptr %8, i64 10
  %89 = load i8, ptr %88, align 2, !range !7, !noundef !8
  br i1 %86, label %90, label %96

90:                                               ; preds = %87
  %91 = getelementptr inbounds nuw i8, ptr %9, i64 10
  %92 = load i8, ptr %91, align 2, !range !7, !noundef !8
  %93 = icmp eq i8 %89, %92
  br i1 %93, label %range_cmp_bounds.exit17.thread, label %94

94:                                               ; preds = %90
  %95 = trunc nuw i8 %89 to i1
  br i1 %95, label %range_cmp_bounds.exit17.thread, label %range_cmp_bounds.exit17.thread39

96:                                               ; preds = %87
  %97 = trunc nuw i8 %89 to i1
  br i1 %97, label %range_cmp_bounds.exit17.thread, label %range_cmp_bounds.exit17.thread39

98:                                               ; preds = %range_cmp_bounds.exit.thread26
  br i1 %86, label %99, label %103

99:                                               ; preds = %98
  %100 = getelementptr inbounds nuw i8, ptr %9, i64 10
  %101 = load i8, ptr %100, align 2, !range !7, !noundef !8
  %102 = trunc nuw i8 %101 to i1
  br i1 %102, label %range_cmp_bounds.exit17.thread39, label %range_cmp_bounds.exit17.thread

103:                                              ; preds = %98
  %104 = getelementptr inbounds nuw i8, ptr %0, i64 296
  %105 = getelementptr inbounds nuw i8, ptr %0, i64 292
  %106 = load i32, ptr %105, align 4
  %107 = load i64, ptr %8, align 8
  %108 = load i64, ptr %9, align 8
  %109 = tail call i64 @FunctionCall2Coll(ptr noundef nonnull %104, i32 noundef %106, i64 noundef %107, i64 noundef %108) #14
  %.fr43 = freeze i64 %109
  %110 = trunc i64 %.fr43 to i32
  %111 = icmp eq i32 %110, 0
  br i1 %111, label %112, label %range_cmp_bounds.exit17

112:                                              ; preds = %103
  %113 = getelementptr inbounds nuw i8, ptr %8, i64 9
  %114 = load i8, ptr %113, align 1, !range !7, !noundef !8
  %115 = trunc nuw i8 %114 to i1
  %116 = getelementptr inbounds nuw i8, ptr %9, i64 9
  %117 = load i8, ptr %116, align 1, !range !7, !noundef !8
  %118 = trunc nuw i8 %117 to i1
  br i1 %115, label %130, label %119

119:                                              ; preds = %112
  %120 = getelementptr inbounds nuw i8, ptr %8, i64 10
  %121 = load i8, ptr %120, align 2, !range !7, !noundef !8
  br i1 %118, label %128, label %122

122:                                              ; preds = %119
  %123 = getelementptr inbounds nuw i8, ptr %9, i64 10
  %124 = load i8, ptr %123, align 2, !range !7, !noundef !8
  %125 = icmp eq i8 %121, %124
  br i1 %125, label %range_cmp_bounds.exit17.thread, label %126

126:                                              ; preds = %122
  %127 = trunc nuw i8 %121 to i1
  br i1 %127, label %range_cmp_bounds.exit17.thread39, label %range_cmp_bounds.exit17.thread

128:                                              ; preds = %119
  %129 = trunc nuw i8 %121 to i1
  br i1 %129, label %range_cmp_bounds.exit17.thread39, label %range_cmp_bounds.exit17.thread

130:                                              ; preds = %112
  br i1 %118, label %range_cmp_bounds.exit17.thread, label %131

131:                                              ; preds = %130
  %132 = getelementptr inbounds nuw i8, ptr %9, i64 10
  %133 = load i8, ptr %132, align 2, !range !7, !noundef !8
  %134 = trunc nuw i8 %133 to i1
  br i1 %134, label %range_cmp_bounds.exit17.thread, label %range_cmp_bounds.exit17.thread39

range_cmp_bounds.exit17:                          ; preds = %103
  %135 = icmp slt i32 %110, 1
  br i1 %135, label %range_cmp_bounds.exit17.thread, label %range_cmp_bounds.exit17.thread39

range_cmp_bounds.exit17.thread:                   ; preds = %131, %96, %94, %130, %122, %90, %126, %128, %99, %range_cmp_bounds.exit17
  br label %range_cmp_bounds.exit17.thread39

range_cmp_bounds.exit17.thread39:                 ; preds = %126, %128, %99, %131, %96, %94, %range_cmp_bounds.exit17, %range_cmp_bounds.exit17.thread
  %136 = phi ptr [ %8, %range_cmp_bounds.exit17.thread ], [ %9, %range_cmp_bounds.exit17 ], [ %9, %94 ], [ %9, %96 ], [ %9, %131 ], [ %9, %99 ], [ %9, %128 ], [ %9, %126 ]
  %137 = call ptr @make_range(ptr noundef %0, ptr noundef nonnull %80, ptr noundef nonnull %136, i1 noundef zeroext false, ptr noundef null)
  br label %138

138:                                              ; preds = %range_cmp_bounds.exit17.thread39, %19
  %.015 = phi ptr [ %23, %19 ], [ %137, %range_cmp_bounds.exit17.thread39 ]
  call void @llvm.lifetime.end.p0(i64 1, ptr nonnull %11) #14
  call void @llvm.lifetime.end.p0(i64 1, ptr nonnull %10) #14
  call void @llvm.lifetime.end.p0(i64 16, ptr nonnull %9) #14
  call void @llvm.lifetime.end.p0(i64 16, ptr nonnull %8) #14
  call void @llvm.lifetime.end.p0(i64 16, ptr nonnull %7) #14
  call void @llvm.lifetime.end.p0(i64 16, ptr nonnull %6) #14
  ret ptr %.015
}